; Function Attrs: mustprogress nounwind uwtable
define internal fastcc void @_ZN12_GLOBAL__N_117OMPClauseProfiler23VisitOMPNocontextClauseEPKN5clang18OMPNocontextClauseE(ptr noundef nonnull readonly align 8 captures(none) dereferenceable(8) %0, ptr noundef nonnull readonly captures(none) %1) unnamed_addr #0 align 2 {
  %3 = getelementptr inbounds nuw i8, ptr %1, i64 24
  %4 = load ptr, ptr %3, align 8
  %.not.i = icmp eq ptr %4, null
  br i1 %.not.i, label %_ZN12_GLOBAL__N_117OMPClauseProfiler24VistOMPClauseWithPreInitEPKN5clang20OMPClauseWithPreInitE.exit, label %5

5:                                                ; preds = %2
  %6 = load ptr, ptr %0, align 8
  tail call fastcc void @_ZN12_GLOBAL__N_112StmtProfiler9VisitStmtEPKN5clang4StmtE(ptr noundef nonnull align 8 dereferenceable(18) %6, ptr noundef nonnull %4)
  br label %_ZN12_GLOBAL__N_117OMPClauseProfiler24VistOMPClauseWithPreInitEPKN5clang20OMPClauseWithPreInitE.exit

_ZN12_GLOBAL__N_117OMPClauseProfiler24VistOMPClauseWithPreInitEPKN5clang20OMPClauseWithPreInitE.exit: ; preds = %2, %5
  %7 = getelementptr inbounds nuw i8, ptr %1, i64 16
  %8 = load ptr, ptr %7, align 8
  %.not = icmp eq ptr %8, null
  br i1 %.not, label %11, label %9

9:                                                ; preds = %_ZN12_GLOBAL__N_117OMPClauseProfiler24VistOMPClauseWithPreInitEPKN5clang20OMPClauseWithPreInitE.exit
  %10 = load ptr, ptr %0, align 8
  tail call fastcc void @_ZN12_GLOBAL__N_112StmtProfiler9VisitStmtEPKN5clang4StmtE(ptr noundef nonnull align 8 dereferenceable(18) %10, ptr noundef nonnull %8)
  br label %11

11:                                               ; preds = %9, %_ZN12_GLOBAL__N_117OMPClauseProfiler24VistOMPClauseWithPreInitEPKN5clang20OMPClauseWithPreInitE.exit
  ret void
}